target datalayout = "e-m:e-p270:32:32-p271:32:32-p272:64:64-i64:64-i128:128-f80:128-n8:16:32:64-S128"
target triple = "x86_64-pc-linux-gnu"

%struct.H5FD_onion_fapl_info_t = type { i8, i64, i32, i32, i64, i8, i8, [256 x i8] }
%struct.H5FD_onion_t = type { %struct.H5FD_t, %struct.H5FD_onion_fapl_info_t, i8, i8, ptr, ptr, ptr, ptr, %struct.H5FD_onion_header_t, %struct.H5FD_onion_history_t, %struct.H5FD_onion_revision_record_t, ptr, i64, i64, i64, i64 }
%struct.H5FD_t = type { i64, ptr, i64, i32, i64, i64, i64, i64, i64, i8 }
%struct.H5FD_onion_header_t = type { i8, i32, i32, i64, i64, i64, i32 }
%struct.H5FD_onion_history_t = type { i8, i64, ptr, i32 }
%struct.H5FD_onion_revision_record_t = type { i8, i64, i64, [16 x i8], i64, %struct.H5FD_onion_archival_index_t, i32, ptr, i32 }
%struct.H5FD_onion_archival_index_t = type { i8, i32, i64, ptr }

@.str = private unnamed_addr constant [103 x i8] c"generated/home/dtcxzyw/WorkSpace/Projects/compilers/llvm-opt-benchmark/bench/hdf5/hdf5/src/H5FDonion.c\00", align 1
@H5E_VFL_g = external global i64, align 8
@__func__.H5FD__onion_sb_encode = private unnamed_addr constant [22 x i8] c"H5FD__onion_sb_encode\00", align 1
@H5E_CANTENCODE_g = external global i64, align 8
@.str.25 = private unnamed_addr constant [44 x i8] c"unable to encode the superblock in R/W file\00", align 1

; Function Attrs: nounwind uwtable
define internal i32 @H5FD__onion_sb_encode(ptr noundef %0, ptr noundef %1, ptr noundef %2) #0 {
  %4 = alloca ptr, align 8
  %5 = alloca ptr, align 8
  %6 = alloca ptr, align 8
  %7 = alloca ptr, align 8
  %8 = alloca i32, align 4
  %9 = alloca i8, align 1
  store ptr %0, ptr %4, align 8
  store ptr %1, ptr %5, align 8
  store ptr %2, ptr %6, align 8
  %10 = load ptr, ptr %4, align 8
  store ptr %10, ptr %7, align 8
  store i32 0, ptr %8, align 4
  store i8 0, ptr %9, align 1
  %11 = load ptr, ptr %7, align 8
  %12 = getelementptr inbounds %struct.H5FD_onion_t, ptr %11, i32 0, i32 4
  %13 = load ptr, ptr %12, align 8
  %14 = icmp ne ptr %13, null
  br i1 %14, label %15, label %38

15:                                               ; preds = %3
  %16 = load ptr, ptr %7, align 8
  %17 = getelementptr inbounds %struct.H5FD_onion_t, ptr %16, i32 0, i32 4
  %18 = load ptr, ptr %17, align 8
  %19 = load ptr, ptr %5, align 8
  %20 = load ptr, ptr %6, align 8
  %21 = call i32 @H5FD_sb_encode(ptr noundef %18, ptr noundef %19, ptr noundef %20)
  %22 = icmp slt i32 %21, 0
  br i1 %22, label %23, label %38

23:                                               ; preds = %15
  br label %24

24:                                               ; preds = %23
  br label %25

25:                                               ; preds = %24
  br label %26

26:                                               ; preds = %25
  %27 = load i64, ptr @H5E_VFL_g, align 8
  %28 = load i64, ptr @H5E_CANTENCODE_g, align 8
  %29 = call i32 (ptr, ptr, i32, i64, i64, ptr, ...) @H5E_printf_stack(ptr noundef @.str, ptr noundef @__func__.H5FD__onion_sb_encode, i32 noundef 408, i64 noundef %27, i64 noundef %28, ptr noundef @.str.25)
  br label %30

30:                                               ; preds = %26
  store i8 1, ptr %9, align 1
  %31 = load i8, ptr %9, align 1
  %32 = trunc i8 %31 to i1
  %33 = zext i1 %32 to i8
  store i8 %33, ptr %9, align 1
  br label %34

34:                                               ; preds = %30
  br label %35

35:                                               ; preds = %34
  store i32 -1, ptr %8, align 4
  br label %39

36:                                               ; No predecessors!
  br label %37

37:                                               ; preds = %36
  br label %38

38:                                               ; preds = %37, %15, %3
  br label %39

39:                                               ; preds = %38, %35
  %40 = load i32, ptr %8, align 4
  ret i32 %40
}