; Function Attrs: nounwind uwtable
define internal range(i32 -1, 1) i32 @H5FD__onion_sb_encode(ptr noundef readonly captures(none) %0, ptr noundef %1, ptr noundef %2) #0 {
  %4 = getelementptr inbounds nuw i8, ptr %0, i64 384
  %5 = load ptr, ptr %4, align 8
  %.not = icmp eq ptr %5, null
  br i1 %.not, label %13, label %6

6:                                                ; preds = %3
  %7 = tail call i32 @H5FD_sb_encode(ptr noundef nonnull %5, ptr noundef %1, ptr noundef %2) #18
  %8 = icmp slt i32 %7, 0
  br i1 %8, label %9, label %13

9:                                                ; preds = %6
  %10 = load i64, ptr @H5E_VFL_g, align 8
  %11 = load i64, ptr @H5E_CANTENCODE_g, align 8
  %12 = tail call i32 (ptr, ptr, i32, i64, i64, ptr, ...) @H5E_printf_stack(ptr noundef nonnull @.str, ptr noundef nonnull @__func__.H5FD__onion_sb_encode, i32 noundef 408, i64 noundef %10, i64 noundef %11, ptr noundef nonnull @.str.25) #18
  br label %13

13:                                               ; preds = %3, %6, %9
  %.0 = phi i32 [ -1, %9 ], [ 0, %6 ], [ 0, %3 ]
  ret i32 %.0
}